; Function Attrs: null_pointer_is_valid sspstrong uwtable
define internal i32 @dissect_nfs3_readlink_reply(ptr noundef %0, ptr noundef readonly captures(none) %1, ptr noundef %2, ptr readnone captures(none) %3) #0 {
  %5 = alloca ptr, align 8
  %6 = alloca ptr, align 8
  %7 = alloca ptr, align 8
  call void @llvm.lifetime.start.p0(i64 8, ptr nonnull %7) #22
  store ptr null, ptr %7, align 8
  %8 = tail call i32 @tvb_get_ntohl(ptr noundef %0, i32 noundef 0)
  %.not.i = icmp eq ptr %2, null
  br i1 %.not.i, label %dissect_nfs3_status.exit, label %9

9:                                                ; preds = %4
  %10 = load i32, ptr @hf_nfs3_status, align 4
  %11 = tail call ptr @proto_tree_add_uint(ptr noundef nonnull %2, i32 noundef %10, ptr noundef %0, i32 noundef 0, i32 noundef 4, i32 noundef %8)
  %12 = load i32, ptr @hf_nfs_status, align 4
  %13 = tail call ptr @proto_tree_add_uint(ptr noundef nonnull %2, i32 noundef %12, ptr noundef %0, i32 noundef 0, i32 noundef 4, i32 noundef %8)
  %.not.i.i = icmp eq ptr %13, null
  br i1 %.not.i.i, label %dissect_nfs3_status.exit, label %14

14:                                               ; preds = %9
  %15 = getelementptr inbounds nuw i8, ptr %13, i64 40
  %16 = load ptr, ptr %15, align 8
  %.not5.i.i = icmp eq ptr %16, null
  br i1 %.not5.i.i, label %dissect_nfs3_status.exit, label %17

17:                                               ; preds = %14
  %18 = getelementptr inbounds nuw i8, ptr %16, i64 28
  %19 = load i32, ptr %18, align 4
  %20 = or i32 %19, 1
  store i32 %20, ptr %18, align 4
  br label %dissect_nfs3_status.exit

dissect_nfs3_status.exit:                         ; preds = %4, %9, %14, %17
  %cond = icmp eq i32 %8, 0
  br i1 %cond, label %21, label %42

21:                                               ; preds = %dissect_nfs3_status.exit
  call void @llvm.lifetime.start.p0(i64 8, ptr nonnull %6) #22
  %22 = tail call i32 @tvb_get_ntohl(ptr noundef %0, i32 noundef 4)
  %23 = load i32, ptr @ett_nfs3_post_op_attr, align 4
  %24 = call ptr @proto_tree_add_subtree(ptr noundef %2, ptr noundef %0, i32 noundef 4, i32 noundef -1, i32 noundef %23, ptr noundef nonnull %6, ptr noundef nonnull @.str.2312)
  %25 = load i32, ptr @hf_nfs3_attributes_follow, align 4
  %26 = call ptr @proto_tree_add_uint(ptr noundef %24, i32 noundef %25, ptr noundef %0, i32 noundef 4, i32 noundef 4, i32 noundef %22)
  %cond.i = icmp eq i32 %22, 1
  br i1 %cond.i, label %27, label %dissect_nfs3_post_op_attr.exit

27:                                               ; preds = %21
  %28 = call fastcc i32 @dissect_nfs_fattr3(ptr noundef readonly %1, ptr noundef %0, i32 noundef 8, ptr noundef %24, ptr noundef nonnull @.str, i32 noundef 2)
  br label %dissect_nfs3_post_op_attr.exit

dissect_nfs3_post_op_attr.exit:                   ; preds = %21, %27
  %.0.i = phi i32 [ %28, %27 ], [ 8, %21 ]
  %29 = load ptr, ptr %6, align 8
  %30 = add i32 %.0.i, -4
  call void @proto_item_set_len(ptr noundef %29, i32 noundef %30)
  call void @llvm.lifetime.end.p0(i64 8, ptr nonnull %6) #22
  %31 = load i32, ptr @hf_nfs2_readlink_data, align 4
  %32 = call zeroext i1 @rpcrdma_is_reduced()
  br i1 %32, label %33, label %36

33:                                               ; preds = %dissect_nfs3_post_op_attr.exit
  %34 = add i32 %.0.i, 4
  %35 = call i32 @tvb_reported_length_remaining(ptr noundef %0, i32 noundef %34)
  call void @rpcrdma_insert_offset(i32 noundef %35)
  store ptr @.str.1409, ptr %7, align 8
  br label %dissect_nfsdata_reduced.exit

36:                                               ; preds = %dissect_nfs3_post_op_attr.exit
  %37 = call i32 @dissect_rpc_string(ptr noundef %0, ptr noundef %2, i32 noundef %31, i32 noundef %.0.i, ptr noundef nonnull %7)
  %.pre = load ptr, ptr %7, align 8
  br label %dissect_nfsdata_reduced.exit

dissect_nfsdata_reduced.exit:                     ; preds = %33, %36
  %38 = phi ptr [ @.str.1409, %33 ], [ %.pre, %36 ]
  %.0.i20 = phi i32 [ %34, %33 ], [ %37, %36 ]
  %39 = getelementptr inbounds nuw i8, ptr %1, i64 8
  %40 = load ptr, ptr %39, align 8
  call void (ptr, i32, ptr, ...) @col_append_fstr(ptr noundef %40, i32 noundef 25, ptr noundef nonnull @.str.2252, ptr noundef %38)
  %41 = load ptr, ptr %7, align 8
  call void (ptr, ptr, ...) @proto_item_append_text(ptr noundef %2, ptr noundef nonnull @.str.2253, ptr noundef %41)
  br label %55

42:                                               ; preds = %dissect_nfs3_status.exit
  call void @llvm.lifetime.start.p0(i64 8, ptr nonnull %5) #22
  %43 = tail call i32 @tvb_get_ntohl(ptr noundef %0, i32 noundef 4)
  %44 = load i32, ptr @ett_nfs3_post_op_attr, align 4
  %45 = call ptr @proto_tree_add_subtree(ptr noundef %2, ptr noundef %0, i32 noundef 4, i32 noundef -1, i32 noundef %44, ptr noundef nonnull %5, ptr noundef nonnull @.str.2312)
  %46 = load i32, ptr @hf_nfs3_attributes_follow, align 4
  %47 = call ptr @proto_tree_add_uint(ptr noundef %45, i32 noundef %46, ptr noundef %0, i32 noundef 4, i32 noundef 4, i32 noundef %43)
  %cond.i22 = icmp eq i32 %43, 1
  br i1 %cond.i22, label %48, label %dissect_nfs3_post_op_attr.exit24

48:                                               ; preds = %42
  %49 = call fastcc i32 @dissect_nfs_fattr3(ptr noundef readonly %1, ptr noundef %0, i32 noundef 8, ptr noundef %45, ptr noundef nonnull @.str, i32 noundef 2)
  br label %dissect_nfs3_post_op_attr.exit24

dissect_nfs3_post_op_attr.exit24:                 ; preds = %42, %48
  %.0.i23 = phi i32 [ %49, %48 ], [ 8, %42 ]
  %50 = load ptr, ptr %5, align 8
  %51 = add i32 %.0.i23, -4
  call void @proto_item_set_len(ptr noundef %50, i32 noundef %51)
  call void @llvm.lifetime.end.p0(i64 8, ptr nonnull %5) #22
  %52 = call ptr @val_to_str_ext(i32 noundef %8, ptr noundef nonnull @names_nfs3_status_ext, ptr noundef nonnull @.str.2241)
  %53 = getelementptr inbounds nuw i8, ptr %1, i64 8
  %54 = load ptr, ptr %53, align 8
  call void (ptr, i32, ptr, ...) @col_append_fstr(ptr noundef %54, i32 noundef 25, ptr noundef nonnull @.str.2242, ptr noundef %52)
  call void (ptr, ptr, ...) @proto_item_append_text(ptr noundef %2, ptr noundef nonnull @.str.2254, ptr noundef %52)
  br label %55

55:                                               ; preds = %dissect_nfs3_post_op_attr.exit24, %dissect_nfsdata_reduced.exit
  %.0 = phi i32 [ %.0.i20, %dissect_nfsdata_reduced.exit ], [ %.0.i23, %dissect_nfs3_post_op_attr.exit24 ]
  call void @llvm.lifetime.end.p0(i64 8, ptr nonnull %7) #22
  ret i32 %.0
}